This is a cert authority that signed ssl-cert.crt

Certificate:
    Data:
        Version: 3 (0x2)
        Serial Number: 13340 (0x341c)
        Signature Algorithm: sha1WithRSAEncryption
        Issuer: O=Test Certificate Authority
        Validity
            Not Before: May 28 15:17:14 2009 GMT
            Not After : Dec 31 15:17:14 2049 GMT
        Subject: O=Test Certificate Authority
        Subject Public Key Info:
            Public Key Algorithm: rsaEncryption
            RSA Public Key: (1024 bit)
                Modulus (1024 bit):
                    00:c2:87:8f:11:6f:ff:c7:a3:d7:8b:78:b3:63:4e:
                    00:e7:22:d0:d6:3c:33:78:5e:f0:bc:fb:b6:f7:1f:
                    c8:1c:f9:2c:77:11:c4:d1:b2:12:2f:eb:e2:2a:18:
                    34:f0:04:56:ef:ba:c4:d4:6c:4d:99:0b:89:ed:90:
                    aa:72:4d:3f:97:12:5d:f1:fc:4e:ed:7b:05:a8:3e:
                    ce:c7:01:4a:54:91:b1:46:6a:68:97:ee:55:0e:61:
                    ef:4b:44:16:d4:ee:8e:02:5f:34:5c:a3:a9:f5:73:
                    96:61:9e:04:63:e2:ac:17:af:81:67:ed:a1:40:e6:
                    99:b4:88:cb:da:83:d1:eb:e7
                Exponent: 65537 (0x10001)
        X509v3 extensions:
            X509v3 Basic Constraints: critical
                CA:TRUE
    Signature Algorithm: sha1WithRSAEncryption
        7f:7e:28:24:bd:7d:f3:a1:2d:98:aa:ce:d1:4e:f4:c0:a7:ee:
        86:2e:71:85:b8:06:f6:d2:c6:dd:88:88:12:a6:04:8e:37:36:
        1a:c3:03:22:18:51:97:60:4a:cc:51:59:0f:f1:d5:d1:c0:fd:
        b8:59:78:5c:f5:99:31:dd:97:2b:7a:be:13:10:08:c5:96:b4:
        6e:3b:1a:78:a5:54:54:33:de:7c:b1:b5:be:a5:e6:3e:a6:e4:
        95:c4:a0:bc:70:95:5e:02:0d:7d:99:c4:aa:06:ea:69:96:cd:
        e7:2a:0d:64:ca:8d:e8:ec:1e:9e:46:4b:be:e7:7e:eb:20:e3:
        b5:51
-----BEGIN CERTIFICATE-----
MIIB1DCCAT2gAwIBAgICNBwwDQYJKoZIhvcNAQEFBQAwJTEjMCEGA1UEChMaVGVz
dCBDZXJ0aWZpY2F0ZSBBdXRob3JpdHkwHhcNMDkwNTI4MTUxNzE0WhcNNDkxMjMx
MTUxNzE0WjAlMSMwIQYDVQQKExpUZXN0IENlcnRpZmljYXRlIEF1dGhvcml0eTCB
nzANBgkqhkiG9w0BAQEFAAOBjQAwgYkCgYEAwoePEW//x6PXi3izY04A5yLQ1jwz
eF7wvPu29x/IHPksdxHE0bISL+viKhg08ARW77rE1GxNmQuJ7ZCqck0/lxJd8fxO
7XsFqD7OxwFKVJGxRmpol+5VDmHvS0QW1O6OAl80XKOp9XOWYZ4EY+KsF6+BZ+2h
QOaZtIjL2oPR6+cCAwEAAaMTMBEwDwYDVR0TAQH/BAUwAwEB/zANBgkqhkiG9w0B
AQUFAAOBgQB/figkvX3zoS2Yqs7RTvTAp+6GLnGFuAb20sbdiIgSpgSONzYawwMi
GFGXYErMUVkP8dXRwP24WXhc9Zkx3Zcrer4TEAjFlrRuOxp4pVRUM958sbW+peY+
puSVxKC8cJVeAg19mcSqBuppls3nKg1kyo3o7B6eRku+537rIOO1UQ==
-----END CERTIFICATE-----
Private-Key: (1024 bit)
modulus:
    00:c2:87:8f:11:6f:ff:c7:a3:d7:8b:78:b3:63:4e:
    00:e7:22:d0:d6:3c:33:78:5e:f0:bc:fb:b6:f7:1f:
    c8:1c:f9:2c:77:11:c4:d1:b2:12:2f:eb:e2:2a:18:
    34:f0:04:56:ef:ba:c4:d4:6c:4d:99:0b:89:ed:90:
    aa:72:4d:3f:97:12:5d:f1:fc:4e:ed:7b:05:a8:3e:
    ce:c7:01:4a:54:91:b1:46:6a:68:97:ee:55:0e:61:
    ef:4b:44:16:d4:ee:8e:02:5f:34:5c:a3:a9:f5:73:
    96:61:9e:04:63:e2:ac:17:af:81:67:ed:a1:40:e6:
    99:b4:88:cb:da:83:d1:eb:e7
publicExponent: 65537 (0x10001)
privateExponent:
    04:b5:27:1f:32:e8:ab:ba:29:53:34:be:92:9e:a6:
    a2:f1:52:c0:7c:80:7a:5f:41:d0:30:ff:42:87:c0:
    5e:03:21:b2:57:f9:bd:61:63:d3:49:10:16:18:b3:
    df:43:1b:9f:7d:93:99:d8:6d:20:51:09:2b:78:9e:
    c7:59:5b:3a:8f:e6:d2:9b:df:87:0f:2a:b6:17:68:
    64:6b:d7:c3:56:e5:20:ad:89:3d:80:a0:f9:30:2a:
    e5:fc:f0:b7:71:60:b9:9a:da:be:26:70:f1:2b:db:
    48:7d:ad:64:ba:4c:1d:a7:8c:82:8b:07:13:e2:14:
    5d:53:9a:13:dd:19:e1:a1
prime1:
    00:e6:33:cc:24:b1:83:b2:ba:3b:c9:d9:04:78:83:
    42:9b:5a:4a:3b:d9:49:88:84:73:a5:12:3f:f2:ce:
    83:b7:54:7f:c9:18:a8:aa:01:dd:c5:2d:18:6f:51:
    59:71:3c:da:95:61:20:5a:96:19:3c:86:d8:c7:29:
    83:04:2e:30:3f
prime2:
    00:d8:54:5a:fe:fa:3c:79:8f:fb:72:f1:e9:e1:86:
    50:7b:e9:f0:73:fa:f6:49:a6:fd:56:83:98:bd:a3:
    4a:be:76:0a:e2:e2:66:a1:06:be:21:43:75:93:c3:
    1d:dc:cc:8a:f4:f9:86:99:8f:b0:5a:f1:0e:c4:a2:
    c0:39:f3:5a:59
exponent1:
    4f:ab:13:76:8b:7c:d1:a9:04:32:1a:0a:23:0f:02:
    49:33:99:47:57:2e:cc:b1:52:38:89:b5:59:f9:c0:
    b9:fc:e3:70:9c:39:1b:05:24:54:2e:04:2b:da:52:
    83:0f:15:72:e7:37:44:42:78:1f:6b:67:b0:9d:9c:
    3b:21:25:0f
exponent2:
    00:90:27:e6:5b:73:35:49:6c:81:0b:1f:d9:d2:c7:
    46:6a:cc:81:c7:47:bd:47:67:57:fa:86:c7:09:d7:
    fe:be:dc:ba:74:66:9a:2d:43:e8:ff:11:8d:10:62:
    3d:4c:1d:a1:9b:8d:8b:fc:58:9c:14:7d:fe:71:5a:
    62:ee:3b:14:41
coefficient:
    2a:61:22:c7:98:9b:f8:ce:d0:f4:0c:d6:69:cc:9e:
    ca:c2:01:5a:00:9d:70:8d:0c:b0:bd:fb:f2:dd:6f:
    9c:78:01:f6:16:af:bb:4b:6a:eb:cd:10:1d:0d:12:
    13:6a:a8:93:66:dc:36:15:a7:28:52:58:2c:e5:a2:
    c2:a7:c9:61
-----BEGIN RSA PRIVATE KEY-----
MIICXAIBAAKBgQDCh48Rb//Ho9eLeLNjTgDnItDWPDN4XvC8+7b3H8gc+Sx3EcTR
shIv6+IqGDTwBFbvusTUbE2ZC4ntkKpyTT+XEl3x/E7tewWoPs7HAUpUkbFGamiX
7lUOYe9LRBbU7o4CXzRco6n1c5ZhngRj4qwXr4Fn7aFA5pm0iMvag9Hr5wIDAQAB
AoGABLUnHzLoq7opUzS+kp6movFSwHyAel9B0DD/QofAXgMhslf5vWFj00kQFhiz
30Mbn32TmdhtIFEJK3iex1lbOo/m0pvfhw8qthdoZGvXw1blIK2JPYCg+TAq5fzw
t3FguZraviZw8SvbSH2tZLpMHaeMgosHE+IUXVOaE90Z4aECQQDmM8wksYOyujvJ
2QR4g0KbWko72UmIhHOlEj/yzoO3VH/JGKiqAd3FLRhvUVlxPNqVYSBalhk8htjH
KYMELjA/AkEA2FRa/vo8eY/7cvHp4YZQe+nwc/r2Sab9VoOYvaNKvnYK4uJmoQa+
IUN1k8Md3MyK9PmGmY+wWvEOxKLAOfNaWQJAT6sTdot80akEMhoKIw8CSTOZR1cu
zLFSOIm1WfnAufzjcJw5GwUkVC4EK9pSgw8Vcuc3REJ4H2tnsJ2cOyElDwJBAJAn
5ltzNUlsgQsf2dLHRmrMgcdHvUdnV/qGxwnX/r7cunRmmi1D6P8RjRBiPUwdoZuN
i/xYnBR9/nFaYu47FEECQCphIseYm/jO0PQM1mnMnsrCAVoAnXCNDLC9+/Ldb5x4
AfYWr7tLauvNEB0NEhNqqJNm3DYVpyhSWCzlosKnyWE=
-----END RSA PRIVATE KEY-----
