This cert/key pair is not signed by any CA.

Certificate:
    Data:
        Version: 3 (0x2)
        Serial Number: 25581 (0x63ed)
        Signature Algorithm: sha1WithRSAEncryption
        Issuer: O=Test Self-Signed Certificate, CN=localhost
        Validity
            Not Before: May 28 15:20:35 2009 GMT
            Not After : Dec 31 15:20:35 2049 GMT
        Subject: O=Test Self-Signed Certificate, CN=localhost
        Subject Public Key Info:
            Public Key Algorithm: rsaEncryption
            RSA Public Key: (1024 bit)
                Modulus (1024 bit):
                    00:bd:a9:70:54:51:27:ac:1b:ae:51:5a:9a:a7:28:
                    29:6e:9b:23:ac:94:5d:b1:75:a6:b4:8c:b2:13:b6:
                    73:ef:d7:c8:86:1e:67:e7:23:b9:23:9a:11:7a:8b:
                    85:5b:af:f3:21:7c:b1:6f:d3:97:40:42:4e:a7:b3:
                    a8:b0:8e:08:2b:24:48:a0:e8:1a:cd:07:70:32:74:
                    63:da:d0:cf:9d:42:dc:67:c4:41:af:bf:d2:db:cf:
                    09:b4:47:45:2c:a4:40:7e:0a:19:48:5b:ab:bb:6f:
                    c7:26:65:7d:ac:8d:74:71:d2:1a:d4:3b:8c:3d:06:
                    b4:6d:01:94:e6:e8:cf:f7:83
                Exponent: 65537 (0x10001)
        X509v3 extensions:
            X509v3 Basic Constraints: critical
                CA:FALSE
    Signature Algorithm: sha1WithRSAEncryption
        40:65:95:d5:61:42:dd:e2:5f:83:a8:0a:e1:cf:7b:4b:6a:a0:
        39:69:fd:27:bb:77:ac:ea:7d:db:12:99:38:33:69:93:6b:86:
        17:26:9d:17:a4:e1:fd:a8:42:53:c7:d2:5f:1e:a3:d9:9b:26:
        7b:c5:70:6f:2e:a7:62:12:d7:d9:7b:39:30:e4:dc:d1:a2:71:
        f8:e7:d4:76:fe:c2:88:4f:cc:6d:7e:b8:15:22:02:3b:77:5a:
        14:44:4d:a4:c3:68:d7:b5:8c:59:87:bc:b8:d3:d6:8e:12:79:
        f4:54:0d:d2:03:fd:d5:f9:1a:eb:06:a7:a3:9d:e8:32:2a:b3:
        3d:df
-----BEGIN CERTIFICATE-----
MIIB/TCCAWagAwIBAgICY+0wDQYJKoZIhvcNAQEFBQAwOzElMCMGA1UEChMcVGVz
dCBTZWxmLVNpZ25lZCBDZXJ0aWZpY2F0ZTESMBAGA1UEAxMJbG9jYWxob3N0MB4X
DTA5MDUyODE1MjAzNVoXDTQ5MTIzMTE1MjAzNVowOzElMCMGA1UEChMcVGVzdCBT
ZWxmLVNpZ25lZCBDZXJ0aWZpY2F0ZTESMBAGA1UEAxMJbG9jYWxob3N0MIGfMA0G
CSqGSIb3DQEBAQUAA4GNADCBiQKBgQC9qXBUUSesG65RWpqnKClumyOslF2xdaa0
jLITtnPv18iGHmfnI7kjmhF6i4Vbr/MhfLFv05dAQk6ns6iwjggrJEig6BrNB3Ay
dGPa0M+dQtxnxEGvv9Lbzwm0R0UspEB+ChlIW6u7b8cmZX2sjXRx0hrUO4w9BrRt
AZTm6M/3gwIDAQABoxAwDjAMBgNVHRMBAf8EAjAAMA0GCSqGSIb3DQEBBQUAA4GB
AEBlldVhQt3iX4OoCuHPe0tqoDlp/Se7d6zqfdsSmTgzaZNrhhcmnRek4f2oQlPH
0l8eo9mbJnvFcG8up2IS19l7OTDk3NGicfjn1Hb+wohPzG1+uBUiAjt3WhRETaTD
aNe1jFmHvLjT1o4SefRUDdID/dX5GusGp6Od6DIqsz3f
-----END CERTIFICATE-----
Private-Key: (1024 bit)
modulus:
    00:bd:a9:70:54:51:27:ac:1b:ae:51:5a:9a:a7:28:
    29:6e:9b:23:ac:94:5d:b1:75:a6:b4:8c:b2:13:b6:
    73:ef:d7:c8:86:1e:67:e7:23:b9:23:9a:11:7a:8b:
    85:5b:af:f3:21:7c:b1:6f:d3:97:40:42:4e:a7:b3:
    a8:b0:8e:08:2b:24:48:a0:e8:1a:cd:07:70:32:74:
    63:da:d0:cf:9d:42:dc:67:c4:41:af:bf:d2:db:cf:
    09:b4:47:45:2c:a4:40:7e:0a:19:48:5b:ab:bb:6f:
    c7:26:65:7d:ac:8d:74:71:d2:1a:d4:3b:8c:3d:06:
    b4:6d:01:94:e6:e8:cf:f7:83
publicExponent: 65537 (0x10001)
privateExponent:
    0a:04:d7:60:3c:e1:41:a0:3c:b7:23:78:23:f8:65:
    27:e8:9e:1b:d1:c2:99:4b:43:c1:29:e5:86:51:0f:
    12:ce:6d:53:58:6b:d8:b3:f4:65:c3:0f:c5:4f:75:
    7e:00:6f:71:87:6a:c0:23:87:4b:e7:b4:cb:fb:1b:
    a0:28:00:9a:5f:8a:4e:32:84:1e:0c:87:79:88:83:
    7b:04:6a:d5:36:6b:0d:66:f5:ba:6f:66:f6:2b:65:
    e8:1d:bd:90:a0:f5:a8:e4:c2:af:39:42:62:0d:a9:
    a2:97:25:bf:64:b7:b3:a7:2b:98:7d:80:9d:dc:64:
    40:90:53:74:cb:3f:4b:d1
prime1:
    00:de:6f:7b:49:ac:dd:aa:43:fa:82:43:a5:b9:4f:
    2a:5e:6a:6c:51:ac:38:bf:c3:df:5c:68:ce:92:35:
    f6:c9:bc:5b:b6:08:3f:5c:25:ee:01:20:b8:9b:25:
    19:d5:91:b8:8d:db:3d:75:7a:e6:39:c4:38:4d:62:
    c3:a4:f8:ac:17
prime2:
    00:da:47:ef:df:a0:52:fe:b4:91:dd:58:96:b5:2a:
    41:67:75:19:e9:8d:86:00:66:20:35:fc:c6:15:a7:
    f4:72:61:18:3d:9e:45:c9:20:b2:11:a6:43:23:cb:
    97:b6:53:63:b8:8b:ed:0f:a2:c3:6d:18:a8:4f:ec:
    8b:c5:ae:d7:75
exponent1:
    26:fb:e6:e1:ac:b8:54:c5:01:3c:9f:5a:86:35:c7:
    b9:30:71:b7:86:b5:93:76:62:c9:31:5d:32:e6:de:
    4f:d1:01:49:cf:fc:3a:cc:33:00:63:99:b7:27:33:
    75:e8:ca:2d:a2:85:0c:f7:f3:2d:a0:a4:35:7b:df:
    ca:24:03:15
exponent2:
    0e:b5:4a:34:87:59:10:50:9a:83:8f:b4:98:00:80:
    e7:b7:bc:47:40:82:07:04:da:a6:c8:a1:90:54:00:
    e4:b4:26:2e:00:bc:33:11:40:ee:6f:85:96:a3:e1:
    55:27:c9:50:66:1d:53:30:64:7a:b5:6e:a1:f4:0e:
    77:03:91:01
coefficient:
    71:fb:7f:d0:db:cd:1e:69:cf:ef:26:a0:94:53:65:
    98:c7:fe:f2:f5:2a:b8:d5:8c:a1:fb:d4:64:76:3f:
    a9:d3:c2:30:3b:c9:ad:a3:7f:d2:3a:88:2c:ee:32:
    d0:02:2e:2d:02:94:10:f0:ae:a9:a6:42:e2:e3:88:
    73:b0:24:8b
-----BEGIN RSA PRIVATE KEY-----
MIICWwIBAAKBgQC9qXBUUSesG65RWpqnKClumyOslF2xdaa0jLITtnPv18iGHmfn
I7kjmhF6i4Vbr/MhfLFv05dAQk6ns6iwjggrJEig6BrNB3AydGPa0M+dQtxnxEGv
v9Lbzwm0R0UspEB+ChlIW6u7b8cmZX2sjXRx0hrUO4w9BrRtAZTm6M/3gwIDAQAB
AoGACgTXYDzhQaA8tyN4I/hlJ+ieG9HCmUtDwSnlhlEPEs5tU1hr2LP0ZcMPxU91
fgBvcYdqwCOHS+e0y/sboCgAml+KTjKEHgyHeYiDewRq1TZrDWb1um9m9itl6B29
kKD1qOTCrzlCYg2popclv2S3s6crmH2AndxkQJBTdMs/S9ECQQDeb3tJrN2qQ/qC
Q6W5TypeamxRrDi/w99caM6SNfbJvFu2CD9cJe4BILibJRnVkbiN2z11euY5xDhN
YsOk+KwXAkEA2kfv36BS/rSR3ViWtSpBZ3UZ6Y2GAGYgNfzGFaf0cmEYPZ5FySCy
EaZDI8uXtlNjuIvtD6LDbRioT+yLxa7XdQJAJvvm4ay4VMUBPJ9ahjXHuTBxt4a1
k3ZiyTFdMubeT9EBSc/8OswzAGOZtyczdejKLaKFDPfzLaCkNXvfyiQDFQJADrVK
NIdZEFCag4+0mACA57e8R0CCBwTapsihkFQA5LQmLgC8MxFA7m+FlqPhVSfJUGYd
UzBkerVuofQOdwORAQJAcft/0NvNHmnP7yaglFNlmMf+8vUquNWMofvUZHY/qdPC
MDvJraN/0jqILO4y0AIuLQKUEPCuqaZC4uOIc7Akiw==
-----END RSA PRIVATE KEY-----
